; Function Attrs: mustprogress nounwind uwtable
define hidden void @_ZN19JfrPeriodicEventSet28requestInitialSystemPropertyEv() local_unnamed_addr #2 align 2 {
  %1 = alloca %class.EventInitialSystemProperty, align 8
  %2 = load ptr, ptr @_ZN9Arguments18_system_propertiesE, align 8
  %3 = tail call noundef i64 @_ZN33FastUnorderedElapsedCounterSource3nowEv() #13
  %.not6 = icmp eq ptr %2, null
  br i1 %.not6, label %._crit_edge, label %.lr.ph

.lr.ph:                                           ; preds = %0
  %4 = getelementptr inbounds i8, ptr %1, i64 16
  %5 = getelementptr inbounds i8, ptr %1, i64 17
  %6 = getelementptr inbounds i8, ptr %1, i64 18
  %7 = getelementptr inbounds i8, ptr %1, i64 24
  %8 = getelementptr inbounds i8, ptr %1, i64 32
  %9 = getelementptr inbounds i8, ptr %1, i64 8
  br label %10

10:                                               ; preds = %.lr.ph, %18
  %.07 = phi ptr [ %2, %.lr.ph ], [ %20, %18 ]
  %11 = getelementptr inbounds i8, ptr %.07, i64 24
  %12 = load i8, ptr %11, align 8
  %13 = trunc i8 %12 to i1
  br i1 %13, label %18, label %14

14:                                               ; preds = %10
  call void @llvm.memset.p0.i64(ptr noundef nonnull align 8 dereferenceable(16) %1, i8 0, i64 16, i1 false)
  store i8 1, ptr %4, align 8
  store i8 0, ptr %5, align 1
  store i8 0, ptr %6, align 2
  %15 = getelementptr inbounds i8, ptr %.07, i64 8
  %16 = load ptr, ptr %15, align 8
  store ptr %16, ptr %7, align 8
  %17 = load ptr, ptr %.07, align 8
  store ptr %17, ptr %8, align 8
  store i64 %3, ptr %1, align 8
  store i64 %3, ptr %9, align 8
  call void @_ZN8JfrEventI26EventInitialSystemPropertyE6commitEv(ptr noundef nonnull align 8 dereferenceable(19) %1)
  br label %18

18:                                               ; preds = %14, %10
  %19 = getelementptr inbounds i8, ptr %.07, i64 16
  %20 = load ptr, ptr %19, align 8
  %.not = icmp eq ptr %20, null
  br i1 %.not, label %._crit_edge, label %10, !llvm.loop !20

._crit_edge:                                      ; preds = %18, %0
  ret void
}